; Function Attrs: mustprogress uwtable
define void @_ZN5arrow15run_end_encodedESt10shared_ptrINS_8DataTypeEES2_(ptr dead_on_unwind noalias writable writeonly sret(%"class.std::shared_ptr") align 8 captures(none) initializes((0, 16)) %0, ptr noundef nonnull %1, ptr noundef nonnull %2) local_unnamed_addr #1 personality ptr @__gxx_personality_v0 {
_ZNSt12__shared_ptrIN5arrow17RunEndEncodedTypeELN9__gnu_cxx12_Lock_policyE2EED2Ev.exit:
  %3 = alloca %"class.std::allocator.565", align 1
  %4 = alloca %"class.std::shared_ptr.463", align 8
  call void @llvm.lifetime.start.p0(i64 16, ptr nonnull %4) #38
  call void @llvm.lifetime.start.p0(i64 1, ptr nonnull %3) #38, !noalias !2217
  call void @_ZNSt12__shared_ptrIN5arrow17RunEndEncodedTypeELN9__gnu_cxx12_Lock_policyE2EEC2ISaIvEJSt10shared_ptrINS0_8DataTypeEES9_EEESt20_Sp_alloc_shared_tagIT_EDpOT0_(ptr noundef nonnull align 8 dereferenceable(16) %4, ptr nonnull %3, ptr noundef nonnull align 8 dereferenceable(16) %1, ptr noundef nonnull align 8 dereferenceable(16) %2)
  call void @llvm.lifetime.end.p0(i64 1, ptr nonnull %3) #38, !noalias !2217
  %5 = load ptr, ptr %4, align 8, !tbaa !2220
  store ptr %5, ptr %0, align 8, !tbaa !333
  %6 = getelementptr inbounds nuw i8, ptr %0, i64 8
  %7 = getelementptr inbounds nuw i8, ptr %4, i64 8
  %8 = load ptr, ptr %7, align 8, !tbaa !352
  store ptr %8, ptr %6, align 8, !tbaa !352
  call void @llvm.lifetime.end.p0(i64 16, ptr nonnull %4) #38
  ret void
}